; Function Attrs: mustprogress nounwind uwtable
define hidden void @_ZN13TemplateTable4fnegEv() local_unnamed_addr #0 align 2 {
  %1 = alloca %class.AddressLiteral, align 8
  %2 = alloca %class.ExternalAddress, align 8
  tail call void @_ZN13TemplateTable10transitionE8TosStateS0_(i32 noundef 6, i32 noundef 6) #8
  %3 = load i32, ptr @UseSSE, align 4
  %4 = icmp sgt i32 %3, 0
  br i1 %4, label %5, label %26

5:                                                ; preds = %0
  %6 = load atomic i8, ptr @_ZGVZN13TemplateTable4fnegEvE14float_signflip acquire, align 8
  %7 = icmp eq i8 %6, 0
  br i1 %7, label %8, label %14, !prof !260

8:                                                ; preds = %5
  %9 = tail call i32 @__cxa_guard_acquire(ptr nonnull @_ZGVZN13TemplateTable4fnegEvE14float_signflip) #8
  %.not = icmp eq i32 %9, 0
  br i1 %.not, label %14, label %10

10:                                               ; preds = %8
  %11 = and i64 ptrtoint (ptr getelementptr inbounds (i8, ptr @_ZL19float_signflip_pool, i64 8) to i64), -16
  %12 = inttoptr i64 %11 to ptr
  store i64 -9223372034707292160, ptr %12, align 16
  %13 = getelementptr inbounds i8, ptr %12, i64 8
  store i64 -9223372034707292160, ptr %13, align 8
  store ptr %12, ptr @_ZZN13TemplateTable4fnegEvE14float_signflip, align 8
  tail call void @__cxa_guard_release(ptr nonnull @_ZGVZN13TemplateTable4fnegEvE14float_signflip) #8
  br label %14

14:                                               ; preds = %10, %8, %5
  %15 = load ptr, ptr @_ZN13TemplateTable5_masmE, align 8
  %16 = load i8, ptr @PrintInterpreter, align 1
  %17 = trunc i8 %16 to i1
  br i1 %17, label %18, label %_ZN12Disassembler4hookI25InterpreterMacroAssemblerEEPT_PKciS3_.exit

18:                                               ; preds = %14
  tail call void @_ZN12Disassembler5_hookEPKciP14MacroAssembler(ptr noundef nonnull @.str, i32 noundef 1704, ptr noundef %15) #8
  br label %_ZN12Disassembler4hookI25InterpreterMacroAssemblerEEPT_PKciS3_.exit

_ZN12Disassembler4hookI25InterpreterMacroAssemblerEEPT_PKciS3_.exit: ; preds = %14, %18
  %19 = load ptr, ptr @_ZZN13TemplateTable4fnegEvE14float_signflip, align 8
  %.not.i.i = icmp eq ptr %19, null
  %20 = select i1 %.not.i.i, i32 0, i32 7
  call void @_ZN14AddressLiteralC2EPhN9relocInfo9relocTypeE(ptr noundef nonnull align 8 dereferenceable(56) %2, ptr noundef %19, i32 noundef %20) #8
  %21 = load ptr, ptr %2, align 8
  %22 = getelementptr inbounds i8, ptr %21, i64 16
  %23 = load ptr, ptr %22, align 8
  call void %23(ptr noundef nonnull align 8 dereferenceable(20) %2, ptr noundef nonnull align 8 dereferenceable(40) %1) #8
  %24 = getelementptr inbounds i8, ptr %1, i64 40
  %25 = getelementptr inbounds i8, ptr %2, i64 40
  call void @llvm.memcpy.p0.p0.i64(ptr noundef nonnull align 8 dereferenceable(16) %24, ptr noundef nonnull align 8 dereferenceable(16) %25, i64 16, i1 false)
  call void @_ZN14MacroAssembler5xorpsE11XMMRegister14AddressLiteral8Register(ptr noundef nonnull align 8 dereferenceable(40) %15, i32 0, ptr noundef nonnull %1, i32 10) #8
  ret void

26:                                               ; preds = %0
  %27 = load ptr, ptr @g_assert_poison, align 8
  store i8 88, ptr %27, align 1
  tail call void @_Z28report_should_not_reach_herePKci(ptr noundef nonnull @.str, i32 noundef 1706) #9
  unreachable
}